target datalayout = "e-m:e-p270:32:32-p271:32:32-p272:64:64-i64:64-i128:128-f80:128-n8:16:32:64-S128"
target triple = "x86_64-pc-linux-gnu"

%"class.Assimp::IFC::Curve" = type { ptr, ptr, ptr }
%"struct.std::pair" = type { double, double }
%"struct.Assimp::IFC::ConversionData" = type { double, double, i8, ptr, ptr, ptr, %class.aiMatrix4x4t, %"class.std::vector.13", %"class.std::vector.18", %"class.std::map", %"class.std::map.26", ptr, ptr, ptr, %"class.std::set" }
%class.aiMatrix4x4t = type { double, double, double, double, double, double, double, double, double, double, double, double, double, double, double, double }
%"class.std::vector.13" = type { %"struct.std::_Vector_base.14" }
%"struct.std::_Vector_base.14" = type { %"struct.std::_Vector_base<aiMesh *, std::allocator<aiMesh *>>::_Vector_impl" }
%"struct.std::_Vector_base<aiMesh *, std::allocator<aiMesh *>>::_Vector_impl" = type { %"struct.std::_Vector_base<aiMesh *, std::allocator<aiMesh *>>::_Vector_impl_data" }
%"struct.std::_Vector_base<aiMesh *, std::allocator<aiMesh *>>::_Vector_impl_data" = type { ptr, ptr, ptr }
%"class.std::vector.18" = type { %"struct.std::_Vector_base.19" }
%"struct.std::_Vector_base.19" = type { %"struct.std::_Vector_base<aiMaterial *, std::allocator<aiMaterial *>>::_Vector_impl" }
%"struct.std::_Vector_base<aiMaterial *, std::allocator<aiMaterial *>>::_Vector_impl" = type { %"struct.std::_Vector_base<aiMaterial *, std::allocator<aiMaterial *>>::_Vector_impl_data" }
%"struct.std::_Vector_base<aiMaterial *, std::allocator<aiMaterial *>>::_Vector_impl_data" = type { ptr, ptr, ptr }
%"class.std::map" = type { %"class.std::_Rb_tree" }
%"class.std::_Rb_tree" = type { %"struct.std::_Rb_tree<Assimp::IFC::ConversionData::MeshCacheIndex, std::pair<const Assimp::IFC::ConversionData::MeshCacheIndex, std::set<unsigned int>>, std::_Select1st<std::pair<const Assimp::IFC::ConversionData::MeshCacheIndex, std::set<unsigned int>>>, std::less<Assimp::IFC::ConversionData::MeshCacheIndex>>::_Rb_tree_impl" }
%"struct.std::_Rb_tree<Assimp::IFC::ConversionData::MeshCacheIndex, std::pair<const Assimp::IFC::ConversionData::MeshCacheIndex, std::set<unsigned int>>, std::_Select1st<std::pair<const Assimp::IFC::ConversionData::MeshCacheIndex, std::set<unsigned int>>>, std::less<Assimp::IFC::ConversionData::MeshCacheIndex>>::_Rb_tree_impl" = type { [8 x i8], %"struct.std::_Rb_tree_header" }
%"struct.std::_Rb_tree_header" = type { %"struct.std::_Rb_tree_node_base", i64 }
%"struct.std::_Rb_tree_node_base" = type { i32, ptr, ptr, ptr }
%"class.std::map.26" = type { %"class.std::_Rb_tree.27" }
%"class.std::_Rb_tree.27" = type { %"struct.std::_Rb_tree<const Assimp::IFC::Schema_2x3::IfcSurfaceStyle *, std::pair<const Assimp::IFC::Schema_2x3::IfcSurfaceStyle *const, unsigned int>, std::_Select1st<std::pair<const Assimp::IFC::Schema_2x3::IfcSurfaceStyle *const, unsigned int>>, std::less<const Assimp::IFC::Schema_2x3::IfcSurfaceStyle *>>::_Rb_tree_impl" }
%"struct.std::_Rb_tree<const Assimp::IFC::Schema_2x3::IfcSurfaceStyle *, std::pair<const Assimp::IFC::Schema_2x3::IfcSurfaceStyle *const, unsigned int>, std::_Select1st<std::pair<const Assimp::IFC::Schema_2x3::IfcSurfaceStyle *const, unsigned int>>, std::less<const Assimp::IFC::Schema_2x3::IfcSurfaceStyle *>>::_Rb_tree_impl" = type { [8 x i8], %"struct.std::_Rb_tree_header" }
%"class.std::set" = type { %"class.std::_Rb_tree.32" }
%"class.std::_Rb_tree.32" = type { %"struct.std::_Rb_tree<unsigned long, unsigned long, std::_Identity<unsigned long>, std::less<unsigned long>>::_Rb_tree_impl" }
%"struct.std::_Rb_tree<unsigned long, unsigned long, std::_Identity<unsigned long>, std::less<unsigned long>>::_Rb_tree_impl" = type { [8 x i8], %"struct.std::_Rb_tree_header" }

; Function Attrs: mustprogress nounwind uwtable
define linkonce_odr void @_ZNSt4pairIddEC2IddTnNSt9enable_ifIXaaclsr5_PCCPE22_MoveConstructiblePairIT_T0_EEclsr5_PCCPE30_ImplicitlyMoveConvertiblePairIS3_S4_EEEbE4typeELb1EEEOS3_OS4_(ptr noundef nonnull align 8 dereferenceable(16) %0, ptr noundef nonnull align 8 dereferenceable(8) %1, ptr noundef nonnull align 8 dereferenceable(8) %2) unnamed_addr #2 comdat align 2 {
  %4 = alloca ptr, align 8
  %5 = alloca ptr, align 8
  %6 = alloca ptr, align 8
  store ptr %0, ptr %4, align 8
  store ptr %1, ptr %5, align 8
  store ptr %2, ptr %6, align 8
  %7 = load ptr, ptr %4, align 8
  %8 = getelementptr inbounds nuw %"struct.std::pair", ptr %7, i32 0, i32 0
  %9 = load ptr, ptr %5, align 8
  %10 = load double, ptr %9, align 8
  store double %10, ptr %8, align 8
  %11 = getelementptr inbounds nuw %"struct.std::pair", ptr %7, i32 0, i32 1
  %12 = load ptr, ptr %6, align 8
  %13 = load double, ptr %12, align 8
  store double %13, ptr %11, align 8
  ret void
}

; Function Attrs: mustprogress uwtable
define linkonce_odr { double, double } @_ZSt9make_pairIddESt4pairINSt25__strip_reference_wrapperINSt5decayIT_E4typeEE6__typeENS1_INS2_IT0_E4typeEE6__typeEEOS3_OS8_(ptr noundef nonnull align 8 dereferenceable(8) %0, ptr noundef nonnull align 8 dereferenceable(8) %1) #1 comdat {
  %3 = alloca %"struct.std::pair", align 8
  %4 = alloca ptr, align 8
  %5 = alloca ptr, align 8
  store ptr %0, ptr %4, align 8
  store ptr %1, ptr %5, align 8
  %6 = load ptr, ptr %4, align 8
  %7 = load ptr, ptr %5, align 8
  call void @_ZNSt4pairIddEC2IddTnNSt9enable_ifIXaaclsr5_PCCPE22_MoveConstructiblePairIT_T0_EEclsr5_PCCPE30_ImplicitlyMoveConvertiblePairIS3_S4_EEEbE4typeELb1EEEOS3_OS4_(ptr noundef nonnull align 8 dereferenceable(16) %3, ptr noundef nonnull align 8 dereferenceable(8) %6, ptr noundef nonnull align 8 dereferenceable(8) %7)
  %8 = load { double, double }, ptr %3, align 8
  ret { double, double } %8
}

; Function Attrs: mustprogress uwtable
define internal { double, double } @_ZNK6Assimp3IFC12_GLOBAL__N_15Conic18GetParametricRangeEv(ptr noundef nonnull align 8 dereferenceable(120) %0) unnamed_addr #1 align 2 {
  %2 = alloca %"struct.std::pair", align 8
  %3 = alloca ptr, align 8
  %4 = alloca double, align 8
  %5 = alloca double, align 8
  store ptr %0, ptr %3, align 8
  %6 = load ptr, ptr %3, align 8
  call void @llvm.lifetime.start.p0(i64 8, ptr %4) #19
  store double 0.000000e+00, ptr %4, align 8
  call void @llvm.lifetime.start.p0(i64 8, ptr %5) #19
  %7 = getelementptr inbounds nuw %"class.Assimp::IFC::Curve", ptr %6, i32 0, i32 2
  %8 = load ptr, ptr %7, align 8
  %9 = getelementptr inbounds nuw %"struct.Assimp::IFC::ConversionData", ptr %8, i32 0, i32 1
  %10 = load double, ptr %9, align 8
  %11 = fdiv double 0x401921FB54442D18, %10
  store double %11, ptr %5, align 8
  %12 = call { double, double } @_ZSt9make_pairIddESt4pairINSt25__strip_reference_wrapperINSt5decayIT_E4typeEE6__typeENS1_INS2_IT0_E4typeEE6__typeEEOS3_OS8_(ptr noundef nonnull align 8 dereferenceable(8) %4, ptr noundef nonnull align 8 dereferenceable(8) %5)
  %13 = getelementptr inbounds nuw { double, double }, ptr %2, i32 0, i32 0
  %14 = extractvalue { double, double } %12, 0
  store double %14, ptr %13, align 8
  %15 = getelementptr inbounds nuw { double, double }, ptr %2, i32 0, i32 1
  %16 = extractvalue { double, double } %12, 1
  store double %16, ptr %15, align 8
  call void @llvm.lifetime.end.p0(i64 8, ptr %5) #19
  call void @llvm.lifetime.end.p0(i64 8, ptr %4) #19
  %17 = load { double, double }, ptr %2, align 8
  ret { double, double } %17
}