; Function Attrs: mustprogress nofree norecurse nosync nounwind willreturn memory(read, inaccessiblemem: none) uwtable
define internal { double, double } @_ZNK6Assimp3IFC12_GLOBAL__N_15Conic18GetParametricRangeEv(ptr noundef nonnull readonly align 8 captures(none) dereferenceable(120) %0) unnamed_addr #22 align 2 {
  %2 = getelementptr inbounds nuw i8, ptr %0, i64 16
  %3 = load ptr, ptr %2, align 8
  %4 = getelementptr inbounds nuw i8, ptr %3, i64 8
  %5 = load double, ptr %4, align 8
  %6 = fdiv double 0x401921FB54442D18, %5
  %.fca.1.insert.i = insertvalue { double, double } { double 0.000000e+00, double poison }, double %6, 1
  ret { double, double } %.fca.1.insert.i
}